target datalayout = "e-m:e-p270:32:32-p271:32:32-p272:64:64-i64:64-i128:128-f80:128-n8:16:32:64-S128"
target triple = "x86_64-pc-linux-gnu"

; Function Attrs: nounwind uwtable
define internal void @smooth_h_predictor(ptr noundef %0, i64 noundef %1, i32 noundef %2, i32 noundef %3, ptr noundef %4, ptr noundef %5) #0 {
  %7 = alloca ptr, align 8
  %8 = alloca i64, align 8
  %9 = alloca i32, align 4
  %10 = alloca i32, align 4
  %11 = alloca ptr, align 8
  %12 = alloca ptr, align 8
  %13 = alloca i8, align 1
  %14 = alloca ptr, align 8
  %15 = alloca i32, align 4
  %16 = alloca i16, align 2
  %17 = alloca i32, align 4
  %18 = alloca i32, align 4
  %19 = alloca [2 x i8], align 1
  %20 = alloca [2 x i8], align 1
  %21 = alloca i32, align 4
  %22 = alloca i32, align 4
  store ptr %0, ptr %7, align 8
  store i64 %1, ptr %8, align 8
  store i32 %2, ptr %9, align 4
  store i32 %3, ptr %10, align 4
  store ptr %4, ptr %11, align 8
  store ptr %5, ptr %12, align 8
  %23 = load ptr, ptr %11, align 8
  %24 = load i32, ptr %9, align 4
  %25 = sub nsw i32 %24, 1
  %26 = sext i32 %25 to i64
  %27 = getelementptr inbounds i8, ptr %23, i64 %26
  %28 = load i8, ptr %27, align 1
  store i8 %28, ptr %13, align 1
  %29 = load i32, ptr %9, align 4
  %30 = sext i32 %29 to i64
  %31 = getelementptr inbounds i8, ptr @sm_weight_arrays, i64 %30
  store ptr %31, ptr %14, align 8
  store i32 8, ptr %15, align 4
  store i16 256, ptr %16, align 2
  store i32 0, ptr %17, align 4
  br label %32

32:                                               ; preds = %99, %6
  %33 = load i32, ptr %17, align 4
  %34 = load i32, ptr %10, align 4
  %35 = icmp slt i32 %33, %34
  br i1 %35, label %36, label %102

36:                                               ; preds = %32
  store i32 0, ptr %18, align 4
  br label %37

37:                                               ; preds = %92, %36
  %38 = load i32, ptr %18, align 4
  %39 = load i32, ptr %9, align 4
  %40 = icmp slt i32 %38, %39
  br i1 %40, label %41, label %95

41:                                               ; preds = %37
  %42 = load ptr, ptr %12, align 8
  %43 = load i32, ptr %17, align 4
  %44 = sext i32 %43 to i64
  %45 = getelementptr inbounds i8, ptr %42, i64 %44
  %46 = load i8, ptr %45, align 1
  store i8 %46, ptr %19, align 1
  %47 = getelementptr inbounds i8, ptr %19, i64 1
  %48 = load i8, ptr %13, align 1
  store i8 %48, ptr %47, align 1
  %49 = load ptr, ptr %14, align 8
  %50 = load i32, ptr %18, align 4
  %51 = sext i32 %50 to i64
  %52 = getelementptr inbounds i8, ptr %49, i64 %51
  %53 = load i8, ptr %52, align 1
  store i8 %53, ptr %20, align 1
  %54 = getelementptr inbounds i8, ptr %20, i64 1
  %55 = load ptr, ptr %14, align 8
  %56 = load i32, ptr %18, align 4
  %57 = sext i32 %56 to i64
  %58 = getelementptr inbounds i8, ptr %55, i64 %57
  %59 = load i8, ptr %58, align 1
  %60 = zext i8 %59 to i32
  %61 = sub nsw i32 256, %60
  %62 = trunc i32 %61 to i8
  store i8 %62, ptr %54, align 1
  store i32 0, ptr %21, align 4
  store i32 0, ptr %22, align 4
  br label %63

63:                                               ; preds = %80, %41
  %64 = load i32, ptr %22, align 4
  %65 = icmp slt i32 %64, 2
  br i1 %65, label %66, label %83

66:                                               ; preds = %63
  %67 = load i32, ptr %22, align 4
  %68 = sext i32 %67 to i64
  %69 = getelementptr inbounds [2 x i8], ptr %20, i64 0, i64 %68
  %70 = load i8, ptr %69, align 1
  %71 = zext i8 %70 to i32
  %72 = load i32, ptr %22, align 4
  %73 = sext i32 %72 to i64
  %74 = getelementptr inbounds [2 x i8], ptr %19, i64 0, i64 %73
  %75 = load i8, ptr %74, align 1
  %76 = zext i8 %75 to i32
  %77 = mul nsw i32 %71, %76
  %78 = load i32, ptr %21, align 4
  %79 = add i32 %78, %77
  store i32 %79, ptr %21, align 4
  br label %80

80:                                               ; preds = %66
  %81 = load i32, ptr %22, align 4
  %82 = add nsw i32 %81, 1
  store i32 %82, ptr %22, align 4
  br label %63, !llvm.loop !27

83:                                               ; preds = %63
  %84 = load i32, ptr %21, align 4
  %85 = add i32 %84, 128
  %86 = lshr i32 %85, 8
  %87 = trunc i32 %86 to i8
  %88 = load ptr, ptr %7, align 8
  %89 = load i32, ptr %18, align 4
  %90 = sext i32 %89 to i64
  %91 = getelementptr inbounds i8, ptr %88, i64 %90
  store i8 %87, ptr %91, align 1
  br label %92

92:                                               ; preds = %83
  %93 = load i32, ptr %18, align 4
  %94 = add nsw i32 %93, 1
  store i32 %94, ptr %18, align 4
  br label %37, !llvm.loop !28

95:                                               ; preds = %37
  %96 = load i64, ptr %8, align 8
  %97 = load ptr, ptr %7, align 8
  %98 = getelementptr inbounds i8, ptr %97, i64 %96
  store ptr %98, ptr %7, align 8
  br label %99

99:                                               ; preds = %95
  %100 = load i32, ptr %17, align 4
  %101 = add nsw i32 %100, 1
  store i32 %101, ptr %17, align 4
  br label %32, !llvm.loop !29

102:                                              ; preds = %32
  ret void
}

; Function Attrs: nounwind uwtable
define hidden void @aom_smooth_h_predictor_4x8_c(ptr noundef %0, i64 noundef %1, ptr noundef %2, ptr noundef %3) #0 {
  %5 = alloca ptr, align 8
  %6 = alloca i64, align 8
  %7 = alloca ptr, align 8
  %8 = alloca ptr, align 8
  store ptr %0, ptr %5, align 8
  store i64 %1, ptr %6, align 8
  store ptr %2, ptr %7, align 8
  store ptr %3, ptr %8, align 8
  %9 = load ptr, ptr %5, align 8
  %10 = load i64, ptr %6, align 8
  %11 = load ptr, ptr %7, align 8
  %12 = load ptr, ptr %8, align 8
  call void @smooth_h_predictor(ptr noundef %9, i64 noundef %10, i32 noundef 4, i32 noundef 8, ptr noundef %11, ptr noundef %12)
  ret void
}